target datalayout = "e-m:e-p270:32:32-p271:32:32-p272:64:64-i64:64-i128:128-f80:128-n8:16:32:64-S128"
target triple = "x86_64-pc-linux-gnu"

%struct.pointf_s = type { double, double }
%struct.Ppoly_t = type { ptr, i64 }
%struct.port = type { %struct.pointf_s, double, ptr, i8, i8, i8, i8, i8, i8, ptr }
%struct.Agobj_s = type { %struct.Agtag_s, ptr }
%struct.Agtag_s = type { i32, i64 }
%struct.Agedgeinfo_t = type { %struct.Agrec_s, ptr, %struct.port, %struct.port, ptr, ptr, ptr, ptr, i8, i8, i8, i8, i8, ptr, ptr, double, double, %struct.Ppoly_t, i8, i8, i16, i32, i32, i32, i16, i32, ptr }
%struct.Agrec_s = type { ptr, ptr }

@stderr = external global ptr, align 8
@.str.2 = private unnamed_addr constant [58 x i8] c"integer overflow when trying to allocate %zu * %zu bytes\0A\00", align 1
@.str.3 = private unnamed_addr constant [49 x i8] c"out of memory when trying to allocate %zu bytes\0A\00", align 1

; Function Attrs: inlinehint nounwind uwtable
define internal ptr @gv_calloc(i64 noundef %0, i64 noundef %1) #3 {
  %3 = alloca i64, align 8
  %4 = alloca i64, align 8
  %5 = alloca ptr, align 8
  store i64 %0, ptr %3, align 8, !tbaa !20
  store i64 %1, ptr %4, align 8, !tbaa !20
  %6 = load i64, ptr %3, align 8, !tbaa !20
  %7 = icmp ugt i64 %6, 0
  br i1 %7, label %8, label %18

8:                                                ; preds = %2
  %9 = load i64, ptr %3, align 8, !tbaa !20
  %10 = udiv i64 -1, %9
  %11 = load i64, ptr %4, align 8, !tbaa !20
  %12 = icmp ult i64 %10, %11
  br i1 %12, label %13, label %18

13:                                               ; preds = %8
  %14 = load ptr, ptr @stderr, align 8, !tbaa !28
  %15 = load i64, ptr %3, align 8, !tbaa !20
  %16 = load i64, ptr %4, align 8, !tbaa !20
  %17 = call i32 (ptr, ptr, ...) @fprintf(ptr noundef %14, ptr noundef @.str.2, i64 noundef %15, i64 noundef %16) #13
  call void @graphviz_exit(i32 noundef 1) #15
  unreachable

18:                                               ; preds = %8, %2
  call void @llvm.lifetime.start.p0(i64 8, ptr %5) #13
  %19 = load i64, ptr %3, align 8, !tbaa !20
  %20 = load i64, ptr %4, align 8, !tbaa !20
  %21 = call noalias ptr @calloc(i64 noundef %19, i64 noundef %20) #14
  store ptr %21, ptr %5, align 8, !tbaa !30
  %22 = load i64, ptr %3, align 8, !tbaa !20
  %23 = icmp ugt i64 %22, 0
  br i1 %23, label %24, label %36

24:                                               ; preds = %18
  %25 = load i64, ptr %4, align 8, !tbaa !20
  %26 = icmp ugt i64 %25, 0
  br i1 %26, label %27, label %36

27:                                               ; preds = %24
  %28 = load ptr, ptr %5, align 8, !tbaa !30
  %29 = icmp eq ptr %28, null
  br i1 %29, label %30, label %36

30:                                               ; preds = %27
  %31 = load ptr, ptr @stderr, align 8, !tbaa !28
  %32 = load i64, ptr %3, align 8, !tbaa !20
  %33 = load i64, ptr %4, align 8, !tbaa !20
  %34 = mul i64 %32, %33
  %35 = call i32 (ptr, ptr, ...) @fprintf(ptr noundef %31, ptr noundef @.str.3, i64 noundef %34) #13
  call void @graphviz_exit(i32 noundef 1) #15
  unreachable

36:                                               ; preds = %27, %24, %18
  %37 = load ptr, ptr %5, align 8, !tbaa !30
  call void @llvm.lifetime.end.p0(i64 8, ptr %5) #13
  ret ptr %37
}

; Function Attrs: nounwind uwtable
define void @makeStraightEdge(ptr noundef %0, ptr noundef %1, i32 noundef %2, ptr noundef %3) #0 {
  %5 = alloca ptr, align 8
  %6 = alloca ptr, align 8
  %7 = alloca i32, align 4
  %8 = alloca ptr, align 8
  %9 = alloca ptr, align 8
  %10 = alloca i64, align 8
  %11 = alloca ptr, align 8
  %12 = alloca i64, align 8
  store ptr %0, ptr %5, align 8, !tbaa !86
  store ptr %1, ptr %6, align 8, !tbaa !40
  store i32 %2, ptr %7, align 4, !tbaa !8
  store ptr %3, ptr %8, align 8, !tbaa !30
  call void @llvm.lifetime.start.p0(i64 8, ptr %9) #13
  call void @llvm.lifetime.start.p0(i64 8, ptr %10) #13
  store i64 1, ptr %10, align 8, !tbaa !20
  %13 = load ptr, ptr %6, align 8, !tbaa !40
  store ptr %13, ptr %9, align 8, !tbaa !40
  br label %14

14:                                               ; preds = %31, %4
  %15 = load ptr, ptr %9, align 8, !tbaa !40
  %16 = load ptr, ptr %9, align 8, !tbaa !40
  %17 = getelementptr inbounds nuw %struct.Agobj_s, ptr %16, i32 0, i32 1
  %18 = load ptr, ptr %17, align 8, !tbaa !42
  %19 = getelementptr inbounds nuw %struct.Agedgeinfo_t, ptr %18, i32 0, i32 26
  %20 = load ptr, ptr %19, align 8, !tbaa !88
  %21 = icmp ne ptr %15, %20
  br i1 %21, label %22, label %29

22:                                               ; preds = %14
  %23 = load ptr, ptr %9, align 8, !tbaa !40
  %24 = getelementptr inbounds nuw %struct.Agobj_s, ptr %23, i32 0, i32 1
  %25 = load ptr, ptr %24, align 8, !tbaa !42
  %26 = getelementptr inbounds nuw %struct.Agedgeinfo_t, ptr %25, i32 0, i32 26
  %27 = load ptr, ptr %26, align 8, !tbaa !88
  store ptr %27, ptr %9, align 8, !tbaa !40
  %28 = icmp ne ptr %27, null
  br label %29

29:                                               ; preds = %22, %14
  %30 = phi i1 [ false, %14 ], [ %28, %22 ]
  br i1 %30, label %31, label %34

31:                                               ; preds = %29
  %32 = load i64, ptr %10, align 8, !tbaa !20
  %33 = add i64 %32, 1
  store i64 %33, ptr %10, align 8, !tbaa !20
  br label %14, !llvm.loop !89

34:                                               ; preds = %29
  call void @llvm.lifetime.start.p0(i64 8, ptr %11) #13
  %35 = load i64, ptr %10, align 8, !tbaa !20
  %36 = call ptr @gv_calloc(i64 noundef %35, i64 noundef 8)
  store ptr %36, ptr %11, align 8, !tbaa !90
  %37 = load ptr, ptr %6, align 8, !tbaa !40
  store ptr %37, ptr %9, align 8, !tbaa !40
  call void @llvm.lifetime.start.p0(i64 8, ptr %12) #13
  store i64 0, ptr %12, align 8, !tbaa !20
  br label %38

38:                                               ; preds = %53, %34
  %39 = load i64, ptr %12, align 8, !tbaa !20
  %40 = load i64, ptr %10, align 8, !tbaa !20
  %41 = icmp ult i64 %39, %40
  br i1 %41, label %43, label %42

42:                                               ; preds = %38
  call void @llvm.lifetime.end.p0(i64 8, ptr %12) #13
  br label %56

43:                                               ; preds = %38
  %44 = load ptr, ptr %9, align 8, !tbaa !40
  %45 = load ptr, ptr %11, align 8, !tbaa !90
  %46 = load i64, ptr %12, align 8, !tbaa !20
  %47 = getelementptr inbounds nuw ptr, ptr %45, i64 %46
  store ptr %44, ptr %47, align 8, !tbaa !40
  %48 = load ptr, ptr %9, align 8, !tbaa !40
  %49 = getelementptr inbounds nuw %struct.Agobj_s, ptr %48, i32 0, i32 1
  %50 = load ptr, ptr %49, align 8, !tbaa !42
  %51 = getelementptr inbounds nuw %struct.Agedgeinfo_t, ptr %50, i32 0, i32 26
  %52 = load ptr, ptr %51, align 8, !tbaa !88
  store ptr %52, ptr %9, align 8, !tbaa !40
  br label %53

53:                                               ; preds = %43
  %54 = load i64, ptr %12, align 8, !tbaa !20
  %55 = add i64 %54, 1
  store i64 %55, ptr %12, align 8, !tbaa !20
  br label %38, !llvm.loop !92

56:                                               ; preds = %42
  %57 = load ptr, ptr %5, align 8, !tbaa !86
  %58 = load ptr, ptr %11, align 8, !tbaa !90
  %59 = load i64, ptr %10, align 8, !tbaa !20
  %60 = load i32, ptr %7, align 4, !tbaa !8
  %61 = load ptr, ptr %8, align 8, !tbaa !30
  call void @makeStraightEdges(ptr noundef %57, ptr noundef %58, i64 noundef %59, i32 noundef %60, ptr noundef %61)
  %62 = load ptr, ptr %11, align 8, !tbaa !90
  call void @free(ptr noundef %62) #13
  call void @llvm.lifetime.end.p0(i64 8, ptr %11) #13
  call void @llvm.lifetime.end.p0(i64 8, ptr %10) #13
  call void @llvm.lifetime.end.p0(i64 8, ptr %9) #13
  ret void
}