; Function Attrs: nounwind uwtable
define void @makeStraightEdge(ptr noundef %0, ptr noundef %1, i32 noundef %2, ptr noundef %3) local_unnamed_addr #0 {
  br label %5

5:                                                ; preds = %5, %4
  %.020 = phi i64 [ 1, %4 ], [ %10, %5 ]
  %.019 = phi ptr [ %1, %4 ], [ %9, %5 ]
  %6 = getelementptr inbounds nuw i8, ptr %.019, i64 16
  %7 = load ptr, ptr %6, align 8, !tbaa !32
  %8 = getelementptr inbounds nuw i8, ptr %7, i64 232
  %9 = load ptr, ptr %8, align 8, !tbaa !77
  %.not = icmp eq ptr %.019, %9
  %.not22 = icmp eq ptr %9, null
  %or.cond = or i1 %.not, %.not22
  %10 = add i64 %.020, 1
  br i1 %or.cond, label %.critedge, label %5, !llvm.loop !78

.critedge:                                        ; preds = %5
  %.not.i = icmp eq i64 %.020, 0
  br i1 %.not.i, label %gv_calloc.exit.thread, label %12

gv_calloc.exit.thread:                            ; preds = %.critedge
  %11 = tail call noalias ptr @calloc(i64 noundef 0, i64 noundef 8) #20
  br label %._crit_edge

12:                                               ; preds = %.critedge
  %mul.ov.i = icmp ugt i64 %.020, 2305843009213693951
  br i1 %mul.ov.i, label %13, label %16

13:                                               ; preds = %12
  %14 = load ptr, ptr @stderr, align 8, !tbaa !14
  %15 = tail call i32 (ptr, ptr, ...) @fprintf(ptr noundef %14, ptr noundef nonnull @.str.2, i64 noundef %.020, i64 noundef 8) #21
  tail call fastcc void @graphviz_exit() #22
  unreachable

16:                                               ; preds = %12
  %17 = tail call noalias ptr @calloc(i64 noundef %.020, i64 noundef 8) #20
  %18 = icmp eq ptr %17, null
  br i1 %18, label %19, label %.lr.ph

19:                                               ; preds = %16
  %20 = load ptr, ptr @stderr, align 8, !tbaa !14
  %21 = shl nuw i64 %.020, 3
  %22 = tail call i32 (ptr, ptr, ...) @fprintf(ptr noundef %20, ptr noundef nonnull @.str.3, i64 noundef %21) #21
  tail call fastcc void @graphviz_exit() #22
  unreachable

._crit_edge:                                      ; preds = %.lr.ph, %gv_calloc.exit.thread
  %23 = phi ptr [ %11, %gv_calloc.exit.thread ], [ %17, %.lr.ph ]
  tail call void @makeStraightEdges(ptr noundef %0, ptr noundef %23, i64 noundef %.020, i32 noundef %2, ptr noundef %3)
  tail call void @free(ptr noundef %23) #19
  ret void

.lr.ph:                                           ; preds = %16, %.lr.ph
  %.024 = phi i64 [ %29, %.lr.ph ], [ 0, %16 ]
  %.123 = phi ptr [ %28, %.lr.ph ], [ %1, %16 ]
  %24 = getelementptr inbounds nuw ptr, ptr %17, i64 %.024
  store ptr %.123, ptr %24, align 8, !tbaa !79
  %25 = getelementptr inbounds nuw i8, ptr %.123, i64 16
  %26 = load ptr, ptr %25, align 8, !tbaa !32
  %27 = getelementptr inbounds nuw i8, ptr %26, i64 232
  %28 = load ptr, ptr %27, align 8, !tbaa !77
  %29 = add nuw i64 %.024, 1
  %exitcond.not = icmp eq i64 %29, %.020
  br i1 %exitcond.not, label %._crit_edge, label %.lr.ph, !llvm.loop !80
}